; Function Attrs: nofree nounwind uwtable
define range(i32 -26, 1) i32 @pmix_fd_write(i32 noundef %0, i32 noundef %1, ptr noundef readonly captures(none) %2) local_unnamed_addr #0 {
  %4 = icmp sgt i32 %1, 0
  br i1 %4, label %.lr.ph.split.us, label %.thread

.lr.ph.split.us:                                  ; preds = %3, %.outer
  %.0.ph26 = phi ptr [ %18, %.outer ], [ %2, %3 ]
  %.012.ph25 = phi i32 [ %16, %.outer ], [ %1, %3 ]
  %5 = zext nneg i32 %.012.ph25 to i64
  %6 = tail call i64 @write(i32 noundef %0, ptr noundef %.0.ph26, i64 noundef %5) #10
  %7 = trunc i64 %6 to i32
  %8 = icmp slt i32 %7, 0
  br i1 %8, label %.lr.ph22, label %.split.us

.lr.ph22:                                         ; preds = %.lr.ph.split.us
  %9 = tail call ptr @__errno_location() #11
  br label %10

10:                                               ; preds = %.lr.ph22, %12
  %11 = load i32, ptr %9, align 4, !tbaa !3
  switch i32 %11, label %.thread [
    i32 11, label %12
    i32 4, label %12
  ]

12:                                               ; preds = %10, %10
  %13 = tail call i64 @write(i32 noundef %0, ptr noundef %.0.ph26, i64 noundef %5) #10
  %14 = trunc i64 %13 to i32
  %15 = icmp slt i32 %14, 0
  br i1 %15, label %10, label %.split.us

.split.us:                                        ; preds = %12, %.lr.ph.split.us
  %.us-phi = phi i64 [ %6, %.lr.ph.split.us ], [ %13, %12 ]
  %.us-phi20 = phi i32 [ %7, %.lr.ph.split.us ], [ %14, %12 ]
  %.not = icmp eq i32 %.us-phi20, 0
  br i1 %.not, label %.thread, label %.outer

.outer:                                           ; preds = %.split.us
  %16 = sub nsw i32 %.012.ph25, %.us-phi20
  %17 = and i64 %.us-phi, 2147483647
  %18 = getelementptr inbounds nuw i8, ptr %.0.ph26, i64 %17
  %19 = icmp sgt i32 %16, 0
  br i1 %19, label %.lr.ph.split.us, label %.thread, !llvm.loop !9

.thread:                                          ; preds = %.split.us, %.outer, %10, %3
  %.011 = phi i32 [ 0, %3 ], [ -26, %10 ], [ 0, %.outer ], [ -26, %.split.us ]
  ret i32 %.011
}